; Function Attrs: mustprogress nofree norecurse nosync nounwind sspstrong willreturn memory(read, inaccessiblemem: none) uwtable
define hidden range(i64 0, -7) i64 @rb_ary_memsize(i64 noundef %0) local_unnamed_addr #0 {
  %2 = inttoptr i64 %0 to ptr
  %3 = load i64, ptr %2, align 8, !tbaa !7
  %4 = and i64 %3, 12288
  %.not = icmp eq i64 %4, 0
  br i1 %.not, label %5, label %10

5:                                                ; preds = %1
  %6 = and i64 %3, 16777216
  %.not7 = icmp eq i64 %6, 0
  %. = select i1 %.not7, i64 24, i64 16
  %7 = getelementptr inbounds nuw i8, ptr %2, i64 %.
  %8 = load i64, ptr %7, align 8, !tbaa !12
  %9 = shl i64 %8, 3
  br label %10

10:                                               ; preds = %1, %5
  %.0 = phi i64 [ %9, %5 ], [ 0, %1 ]
  ret i64 %.0
}